(lp1
(lp2
I17
aI0
aI0
aa(lp3
I27
aI0
aI0
aa(lp4
I42
aI0
aI0
aa(lp5
I19
aI0
aI0
aa(lp6
I36
aI0
aI0
aa(lp7
I84
aI0
aI0
aa(lp8
I30
aI0
aI0
aa(lp9
I33
aI0
aI0
aa(lp10
I29
aI0
aI0
aa(lp11
I35
aI0
aI0
aa(lp12
I31
aI0
aI0
aa(lp13
I28
aI0
aI0
aa(lp14
I38
aI0
aI0
aa(lp15
I30
aI0
aI0
aa(lp16
I44
aI0
aI0
aa(lp17
I24
aI0
aI0
aa(lp18
I31
aI0
aI0
aa(lp19
I31
aI0
aI0
aa(lp20
I72
aI0
aI0
aa(lp21
I28
aI0
aI0
aa(lp22
I40
aI0
aI0
aa(lp23
I40
aI0
aI0
aa(lp24
I18
aI0
aI0
aa(lp25
I25
aI0
aI0
aa(lp26
I26
aI0
aI0
aa(lp27
I32
aI0
aI0
aa(lp28
I31
aI0
aI0
aa(lp29
I17
aI0
aI0
aa(lp30
I22
aI0
aI0
aa(lp31
I25
aI0
aI0
aa(lp32
I25
aI0
aI0
aa(lp33
I35
aI0
aI0
aa(lp34
I38
aI0
aI0
aa(lp35
I58
aI0
aI0
aa(lp36
I28
aI0
aI0
aa(lp37
I27
aI0
aI0
aa(lp38
I25
aI0
aI0
aa(lp39
I16
aI0
aI0
aa(lp40
I44
aI0
aI0
aa(lp41
I27
aI0
aI0
aa(lp42
I39
aI0
aI0
aa(lp43
I34
aI0
aI0
aa(lp44
I38
aI0
aI0
aa(lp45
I36
aI0
aI0
aa(lp46
I23
aI0
aI0
aa(lp47
I33
aI0
aI0
aa(lp48
I32
aI0
aI0
aa(lp49
I26
aI0
aI0
aa(lp50
I36
aI0
aI0
aa(lp51
I33
aI0
aI0
aa(lp52
I28
aI0
aI0
aa(lp53
I34
aI0
aI0
aa(lp54
I12
aI0
aI0
aa(lp55
I33
aI0
aI0
aa(lp56
I25
aI0
aI0
aa(lp57
I9
aI0
aI0
aa(lp58
I27
aI0
aI0
aa(lp59
I22
aI0
aI0
aa(lp60
I43
aI0
aI0
aa(lp61
I27
aI0
aI0
aa(lp62
I31
aI0
aI0
aa(lp63
I30
aI0
aI0
aa(lp64
I40
aI0
aI0
aa(lp65
I26
aI0
aI0
aa(lp66
I37
aI0
aI0
aa(lp67
I37
aI0
aI0
aa(lp68
I39
aI0
aI0
aa(lp69
I25
aI0
aI0
aa(lp70
I32
aI0
aI0
aa(lp71
I25
aI0
aI0
aa(lp72
I21
aI0
aI0
aa(lp73
I30
aI0
aI0
aa(lp74
I22
aI0
aI0
aa(lp75
I23
aI0
aI0
aa(lp76
I25
aI0
aI0
aa(lp77
I50
aI0
aI0
aa(lp78
I24
aI0
aI0
aa(lp79
I30
aI0
aI0
aa(lp80
I39
aI0
aI0
aa(lp81
I30
aI0
aI0
aa(lp82
I27
aI0
aI0
aa(lp83
I40
aI0
aI0
aa(lp84
I21
aI0
aI0
aa(lp85
I21
aI0
aI0
aa(lp86
I21
aI0
aI0
aa(lp87
I23
aI0
aI0
aa(lp88
I23
aI0
aI0
aa(lp89
I45
aI0
aI0
aa(lp90
I39
aI0
aI0
aa(lp91
I28
aI0
aI0
aa(lp92
I35
aI0
aI0
aa(lp93
I21
aI0
aI0
aa(lp94
I30
aI0
aI0
aa(lp95
I37
aI0
aI0
aa(lp96
I47
aI0
aI0
aa(lp97
I42
aI0
aI0
aa(lp98
I26
aI0
aI0
aa(lp99
I44
aI0
aI0
aa(lp100
I39
aI0
aI0
aa(lp101
I31
aI0
aI0
aa(lp102
I35
aI0
aI0
aa(lp103
I30
aI0
aI0
aa(lp104
I54
aI0
aI0
aa(lp105
I32
aI0
aI0
aa(lp106
I29
aI0
aI0
aa(lp107
I19
aI0
aI0
aa(lp108
I40
aI0
aI0
aa(lp109
I33
aI0
aI0
aa(lp110
I29
aI0
aI0
aa(lp111
I33
aI0
aI0
aa(lp112
I34
aI0
aI0
aa(lp113
I25
aI0
aI0
aa(lp114
I36
aI0
aI0
aa(lp115
I41
aI0
aI0
aa(lp116
I27
aI0
aI0
aa(lp117
I40
aI0
aI0
aa(lp118
I27
aI0
aI0
aa(lp119
I20
aI0
aI0
aa(lp120
I30
aI0
aI0
aa(lp121
I23
aI0
aI0
aa(lp122
I38
aI0
aI0
aa(lp123
I32
aI0
aI0
aa(lp124
I24
aI0
aI0
aa(lp125
I42
aI0
aI0
aa(lp126
I27
aI0
aI0
aa(lp127
I40
aI0
aI0
aa(lp128
I25
aI0
aI0
aa(lp129
I11
aI0
aI0
aa(lp130
I22
aI0
aI0
aa(lp131
I12
aI0
aI0
aa(lp132
I33
aI0
aI0
aa(lp133
I26
aI0
aI0
aa(lp134
I24
aI0
aI0
aa(lp135
I25
aI0
aI0
aa(lp136
I37
aI0
aI0
aa(lp137
I30
aI0
aI0
aa(lp138
I28
aI0
aI0
aa(lp139
I40
aI0
aI0
aa(lp140
I50
aI0
aI0
aa(lp141
I29
aI0
aI0
aa(lp142
I24
aI0
aI0
aa(lp143
I30
aI0
aI0
aa(lp144
I29
aI0
aI0
aa(lp145
I36
aI0
aI0
aa(lp146
I33
aI0
aI0
aa(lp147
I45
aI0
aI0
aa(lp148
I49
aI0
aI0
aa(lp149
I28
aI0
aI0
aa(lp150
I26
aI0
aI0
aa(lp151
I45
aI0
aI0
aa(lp152
I32
aI0
aI0
aa(lp153
I32
aI0
aI0
aa(lp154
I43
aI0
aI0
aa(lp155
I17
aI0
aI0
aa(lp156
I18
aI0
aI0
aa(lp157
I14
aI0
aI0
aa(lp158
I30
aI0
aI0
aa(lp159
I34
aI0
aI0
aa(lp160
I27
aI0
aI0
aa(lp161
I35
aI0
aI0
aa(lp162
I37
aI0
aI0
aa(lp163
I23
aI0
aI0
aa(lp164
I24
aI0
aI0
aa(lp165
I6
aI0
aI0
aa(lp166
I35
aI0
aI0
aa(lp167
I42
aI0
aI0
aa(lp168
I32
aI0
aI0
aa(lp169
I48
aI0
aI0
aa(lp170
I11
aI0
aI0
aa(lp171
I24
aI0
aI0
aa(lp172
I32
aI0
aI0
aa(lp173
I26
aI0
aI0
aa(lp174
I38
aI0
aI0
aa(lp175
I24
aI0
aI0
aa(lp176
I44
aI0
aI0
aa(lp177
I31
aI0
aI0
aa(lp178
I36
aI0
aI0
aa(lp179
I25
aI0
aI0
aa(lp180
I28
aI0
aI0
aa(lp181
I28
aI0
aI0
aa(lp182
I16
aI0
aI0
aa(lp183
I35
aI0
aI0
aa(lp184
I30
aI0
aI0
aa(lp185
I35
aI0
aI0
aa(lp186
I46
aI0
aI0
aa(lp187
I32
aI0
aI0
aa(lp188
I28
aI0
aI0
aa(lp189
I43
aI0
aI0
aa(lp190
I30
aI0
aI0
aa(lp191
I32
aI0
aI0
aa(lp192
I28
aI0
aI0
aa(lp193
I34
aI0
aI0
aa(lp194
I31
aI0
aI0
aa(lp195
I40
aI0
aI0
aa(lp196
I8
aI0
aI0
aa(lp197
I39
aI0
aI0
aa(lp198
I43
aI0
aI0
aa(lp199
I49
aI0
aI0
aa(lp200
I33
aI0
aI0
aa(lp201
I36
aI0
aI0
aa(lp202
I32
aI0
aI0
aa(lp203
I31
aI0
aI0
aa(lp204
I42
aI0
aI0
aa(lp205
I24
aI0
aI0
aa(lp206
I27
aI0
aI0
aa(lp207
I26
aI0
aI0
aa(lp208
I35
aI0
aI0
aa(lp209
I26
aI0
aI0
aa(lp210
I39
aI0
aI0
aa.