(lp1
(lp2
I7
aI0
aI0
aa(lp3
I132
aI0
aI0
aa(lp4
I135
aI0
aI0
aa(lp5
I228
aI0
aI0
aa(lp6
I227
aI0
aI0
aa(lp7
I69
aI0
aI0
aa(lp8
I42
aI0
aI0
aa(lp9
I109
aI0
aI0
aa(lp10
I45
aI0
aI0
aa(lp11
I68
aI0
aI0
aa(lp12
I18
aI0
aI0
aa(lp13
I125
aI0
aI0
aa(lp14
I288
aI0
aI0
aa(lp15
I49
aI0
aI0
aa(lp16
I58
aI0
aI0
aa(lp17
I48
aI0
aI0
aa(lp18
I74
aI0
aI0
aa(lp19
I39
aI0
aI0
aa(lp20
I42
aI0
aI0
aa(lp21
I22
aI0
aI0
aa(lp22
I42
aI0
aI0
aa(lp23
I140
aI0
aI0
aa(lp24
I58
aI0
aI0
aa(lp25
I10
aI0
aI0
aa(lp26
I33
aI0
aI0
aa(lp27
I150
aI0
aI0
aa(lp28
I44
aI0
aI0
aa(lp29
I108
aI0
aI0
aa(lp30
I83
aI0
aI0
aa(lp31
I23
aI0
aI0
aa(lp32
I34
aI0
aI0
aa(lp33
I272
aI0
aI0
aa(lp34
I47
aI0
aI0
aa(lp35
I394
aI0
aI0
aa(lp36
I68
aI0
aI0
aa(lp37
I392
aI0
aI0
aa(lp38
I75
aI0
aI0
aa(lp39
I112
aI0
aI0
aa(lp40
I102
aI0
aI0
aa(lp41
I25
aI0
aI0
aa(lp42
I222
aI0
aI0
aa(lp43
I47
aI0
aI0
aa(lp44
I28
aI0
aI0
aa(lp45
I60
aI0
aI0
aa(lp46
I86
aI0
aI0
aa(lp47
I35
aI0
aI0
aa(lp48
I276
aI0
aI0
aa(lp49
I122
aI0
aI0
aa(lp50
I25
aI0
aI0
aa(lp51
I14
aI0
aI0
aa(lp52
I53
aI0
aI0
aa(lp53
I23
aI0
aI0
aa(lp54
I88
aI0
aI0
aa(lp55
I126
aI0
aI0
aa(lp56
I11
aI0
aI0
aa(lp57
I9
aI0
aI0
aa(lp58
I59
aI0
aI0
aa(lp59
I47
aI0
aI0
aa(lp60
I43
aI0
aI0
aa(lp61
I30
aI0
aI0
aa(lp62
I264
aI0
aI0
aa(lp63
I29
aI0
aI0
aa(lp64
I23
aI0
aI0
aa(lp65
I37
aI0
aI0
aa(lp66
I32
aI0
aI0
aa(lp67
I166
aI0
aI0
aa(lp68
I212
aI0
aI0
aa(lp69
I66
aI0
aI0
aa(lp70
I52
aI0
aI0
aa(lp71
I16
aI0
aI0
aa(lp72
I26
aI0
aI0
aa(lp73
I46
aI0
aI0
aa(lp74
I22
aI0
aI0
aa(lp75
I4
aI0
aI0
aa(lp76
I108
aI0
aI0
aa(lp77
I805
aI0
aI0
aa(lp78
I25
aI0
aI0
aa(lp79
I41
aI0
aI0
aa(lp80
I208
aI0
aI0
aa(lp81
I13
aI0
aI0
aa(lp82
I21
aI0
aI0
aa(lp83
I32
aI0
aI0
aa(lp84
I39
aI0
aI0
aa(lp85
I21
aI0
aI0
aa(lp86
I75
aI0
aI0
aa(lp87
I17
aI0
aI0
aa(lp88
I11
aI0
aI0
aa(lp89
I97
aI0
aI0
aa(lp90
I28
aI0
aI0
aa(lp91
I38
aI0
aI0
aa(lp92
I23
aI0
aI0
aa(lp93
I63
aI0
aI0
aa(lp94
I36
aI0
aI0
aa.