(lp1
(lp2
I0
aI0
aI0
aa(lp3
I0
aI0
aI0
aa(lp4
I5
aI0
aI0
aa(lp5
I9
aI0
aI0
aa(lp6
I23
aI0
aI0
aa(lp7
I0
aI0
aI0
aa(lp8
I0
aI0
aI0
aa(lp9
I1
aI0
aI0
aa(lp10
I0
aI0
aI0
aa(lp11
I2
aI0
aI0
aa(lp12
I1
aI0
aI0
aa(lp13
I3
aI0
aI0
aa(lp14
I2
aI0
aI0
aa(lp15
I1
aI0
aI0
aa(lp16
I1
aI0
aI0
aa(lp17
I1
aI0
aI0
aa(lp18
I0
aI0
aI0
aa(lp19
I0
aI0
aI0
aa(lp20
I0
aI0
aI0
aa(lp21
I1
aI0
aI0
aa(lp22
I0
aI0
aI0
aa(lp23
I1
aI0
aI0
aa(lp24
I0
aI0
aI0
aa(lp25
I0
aI0
aI0
aa(lp26
I0
aI0
aI0
aa(lp27
I2
aI0
aI0
aa(lp28
I8
aI0
aI0
aa(lp29
I1
aI0
aI0
aa(lp30
I6
aI0
aI0
aa(lp31
I6
aI0
aI0
aa(lp32
I2
aI0
aI0
aa(lp33
I27
aI0
aI0
aa(lp34
I8
aI0
aI0
aa(lp35
I24
aI0
aI0
aa(lp36
I11
aI0
aI0
aa(lp37
I2
aI0
aI0
aa(lp38
I1
aI0
aI0
aa(lp39
I0
aI0
aI0
aa(lp40
I0
aI0
aI0
aa(lp41
I0
aI0
aI0
aa(lp42
I9
aI0
aI0
aa(lp43
I9
aI0
aI0
aa(lp44
I0
aI0
aI0
aa(lp45
I0
aI0
aI0
aa(lp46
I3
aI0
aI0
aa(lp47
I1
aI0
aI0
aa(lp48
I8
aI0
aI0
aa(lp49
I1
aI0
aI0
aa(lp50
I0
aI0
aI0
aa(lp51
I1
aI0
aI0
aa(lp52
I1
aI0
aI0
aa(lp53
I0
aI0
aI0
aa(lp54
I7
aI0
aI0
aa(lp55
I2
aI0
aI0
aa(lp56
I0
aI0
aI0
aa(lp57
I0
aI0
aI0
aa(lp58
I0
aI0
aI0
aa(lp59
I0
aI0
aI0
aa(lp60
I2
aI0
aI0
aa(lp61
I0
aI0
aI0
aa(lp62
I3
aI0
aI0
aa(lp63
I4
aI0
aI0
aa(lp64
I0
aI0
aI0
aa(lp65
I4
aI0
aI0
aa(lp66
I1
aI0
aI0
aa(lp67
I12
aI0
aI0
aa(lp68
I7
aI0
aI0
aa(lp69
I0
aI0
aI0
aa(lp70
I6
aI0
aI0
aa(lp71
I0
aI0
aI0
aa(lp72
I0
aI0
aI0
aa(lp73
I0
aI0
aI0
aa(lp74
I5
aI0
aI0
aa(lp75
I0
aI0
aI0
aa(lp76
I4
aI0
aI0
aa(lp77
I47
aI0
aI0
aa(lp78
I0
aI0
aI0
aa(lp79
I1
aI0
aI0
aa(lp80
I4
aI0
aI0
aa(lp81
I0
aI0
aI0
aa(lp82
I0
aI0
aI0
aa(lp83
I0
aI0
aI0
aa(lp84
I1
aI0
aI0
aa(lp85
I0
aI0
aI0
aa(lp86
I2
aI0
aI0
aa(lp87
I0
aI0
aI0
aa(lp88
I1
aI0
aI0
aa(lp89
I6
aI0
aI0
aa(lp90
I0
aI0
aI0
aa(lp91
I0
aI0
aI0
aa(lp92
I1
aI0
aI0
aa(lp93
I6
aI0
aI0
aa(lp94
I1
aI0
aI0
aa.