(lp1
(lp2
I65
aI0
aI0
aa(lp3
I181
aI0
aI0
aa(lp4
I189
aI0
aI0
aa(lp5
I177
aI0
aI0
aa(lp6
I164
aI0
aI0
aa(lp7
I167
aI0
aI0
aa(lp8
I241
aI0
aI0
aa(lp9
I149
aI0
aI0
aa(lp10
I147
aI0
aI0
aa(lp11
I147
aI0
aI0
aa(lp12
I153
aI0
aI0
aa(lp13
I146
aI0
aI0
aa(lp14
I157
aI0
aI0
aa(lp15
I173
aI0
aI0
aa(lp16
I149
aI0
aI0
aa(lp17
I193
aI0
aI0
aa(lp18
I189
aI0
aI0
aa(lp19
I151
aI0
aI0
aa(lp20
I173
aI0
aI0
aa(lp21
I67
aI0
aI0
aa(lp22
I254
aI0
aI0
aa(lp23
I183
aI0
aI0
aa(lp24
I100
aI0
aI0
aa(lp25
I75
aI0
aI0
aa(lp26
I157
aI0
aI0
aa(lp27
I167
aI0
aI0
aa(lp28
I195
aI0
aI0
aa(lp29
I218
aI0
aI0
aa(lp30
I139
aI0
aI0
aa(lp31
I177
aI0
aI0
aa(lp32
I166
aI0
aI0
aa(lp33
I143
aI0
aI0
aa(lp34
I38
aI0
aI0
aa(lp35
I156
aI0
aI0
aa(lp36
I216
aI0
aI0
aa(lp37
I150
aI0
aI0
aa(lp38
I246
aI0
aI0
aa(lp39
I169
aI0
aI0
aa(lp40
I186
aI0
aI0
aa(lp41
I190
aI0
aI0
aa(lp42
I48
aI0
aI0
aa(lp43
I36
aI0
aI0
aa(lp44
I97
aI0
aI0
aa(lp45
I78
aI0
aI0
aa(lp46
I175
aI0
aI0
aa(lp47
I179
aI0
aI0
aa(lp48
I85
aI0
aI0
aa(lp49
I180
aI0
aI0
aa(lp50
I175
aI0
aI0
aa(lp51
I155
aI0
aI0
aa(lp52
I185
aI0
aI0
aa(lp53
I160
aI0
aI0
aa(lp54
I179
aI0
aI0
aa(lp55
I200
aI0
aI0
aa(lp56
I178
aI0
aI0
aa(lp57
I181
aI0
aI0
aa(lp58
I148
aI0
aI0
aa(lp59
I182
aI0
aI0
aa(lp60
I172
aI0
aI0
aa(lp61
I133
aI0
aI0
aa(lp62
I199
aI0
aI0
aa(lp63
I272
aI0
aI0
aa(lp64
I169
aI0
aI0
aa(lp65
I130
aI0
aI0
aa(lp66
I176
aI0
aI0
aa(lp67
I156
aI0
aI0
aa(lp68
I151
aI0
aI0
aa(lp69
I132
aI0
aI0
aa(lp70
I139
aI0
aI0
aa(lp71
I140
aI0
aI0
aa(lp72
I157
aI0
aI0
aa(lp73
I160
aI0
aI0
aa(lp74
I147
aI0
aI0
aa(lp75
I173
aI0
aI0
aa(lp76
I161
aI0
aI0
aa(lp77
I225
aI0
aI0
aa(lp78
I77
aI0
aI0
aa(lp79
I172
aI0
aI0
aa(lp80
I157
aI0
aI0
aa(lp81
I196
aI0
aI0
aa(lp82
I179
aI0
aI0
aa(lp83
I187
aI0
aI0
aa(lp84
I161
aI0
aI0
aa(lp85
I146
aI0
aI0
aa(lp86
I110
aI0
aI0
aa(lp87
I164
aI0
aI0
aa(lp88
I175
aI0
aI0
aa(lp89
I270
aI0
aI0
aa(lp90
I173
aI0
aI0
aa(lp91
I176
aI0
aI0
aa(lp92
I186
aI0
aI0
aa(lp93
I39
aI0
aI0
aa(lp94
I203
aI0
aI0
aa(lp95
I88
aI0
aI0
aa(lp96
I182
aI0
aI0
aa(lp97
I161
aI0
aI0
aa(lp98
I199
aI0
aI0
aa(lp99
I135
aI0
aI0
aa(lp100
I137
aI0
aI0
aa(lp101
I155
aI0
aI0
aa(lp102
I144
aI0
aI0
aa(lp103
I163
aI0
aI0
aa(lp104
I102
aI0
aI0
aa(lp105
I159
aI0
aI0
aa(lp106
I142
aI0
aI0
aa(lp107
I65
aI0
aI0
aa(lp108
I54
aI0
aI0
aa(lp109
I220
aI0
aI0
aa(lp110
I185
aI0
aI0
aa(lp111
I154
aI0
aI0
aa(lp112
I157
aI0
aI0
aa(lp113
I74
aI0
aI0
aa(lp114
I126
aI0
aI0
aa(lp115
I251
aI0
aI0
aa(lp116
I148
aI0
aI0
aa(lp117
I24
aI0
aI0
aa(lp118
I158
aI0
aI0
aa(lp119
I169
aI0
aI0
aa(lp120
I165
aI0
aI0
aa(lp121
I146
aI0
aI0
aa(lp122
I168
aI0
aI0
aa(lp123
I176
aI0
aI0
aa(lp124
I143
aI0
aI0
aa(lp125
I165
aI0
aI0
aa(lp126
I153
aI0
aI0
aa(lp127
I136
aI0
aI0
aa(lp128
I208
aI0
aI0
aa(lp129
I200
aI0
aI0
aa(lp130
I136
aI0
aI0
aa(lp131
I167
aI0
aI0
aa(lp132
I180
aI0
aI0
aa(lp133
I112
aI0
aI0
aa(lp134
I81
aI0
aI0
aa(lp135
I184
aI0
aI0
aa(lp136
I158
aI0
aI0
aa(lp137
I188
aI0
aI0
aa(lp138
I157
aI0
aI0
aa(lp139
I175
aI0
aI0
aa(lp140
I137
aI0
aI0
aa(lp141
I134
aI0
aI0
aa(lp142
I165
aI0
aI0
aa(lp143
I137
aI0
aI0
aa(lp144
I165
aI0
aI0
aa(lp145
I169
aI0
aI0
aa(lp146
I170
aI0
aI0
aa(lp147
I179
aI0
aI0
aa(lp148
I103
aI0
aI0
aa(lp149
I154
aI0
aI0
aa(lp150
I168
aI0
aI0
aa(lp151
I156
aI0
aI0
aa(lp152
I54
aI0
aI0
aa(lp153
I187
aI0
aI0
aa(lp154
I186
aI0
aI0
aa(lp155
I275
aI0
aI0
aa(lp156
I172
aI0
aI0
aa(lp157
I162
aI0
aI0
aa(lp158
I158
aI0
aI0
aa(lp159
I194
aI0
aI0
aa(lp160
I194
aI0
aI0
aa(lp161
I158
aI0
aI0
aa(lp162
I83
aI0
aI0
aa(lp163
I70
aI0
aI0
aa(lp164
I185
aI0
aI0
aa(lp165
I174
aI0
aI0
aa(lp166
I196
aI0
aI0
aa(lp167
I165
aI0
aI0
aa(lp168
I160
aI0
aI0
aa(lp169
I171
aI0
aI0
aa(lp170
I248
aI0
aI0
aa(lp171
I157
aI0
aI0
aa(lp172
I174
aI0
aI0
aa(lp173
I238
aI0
aI0
aa(lp174
I92
aI0
aI0
aa(lp175
I152
aI0
aI0
aa(lp176
I155
aI0
aI0
aa(lp177
I182
aI0
aI0
aa(lp178
I166
aI0
aI0
aa(lp179
I138
aI0
aI0
aa(lp180
I155
aI0
aI0
aa(lp181
I142
aI0
aI0
aa(lp182
I205
aI0
aI0
aa(lp183
I170
aI0
aI0
aa(lp184
I129
aI0
aI0
aa(lp185
I136
aI0
aI0
aa(lp186
I145
aI0
aI0
aa(lp187
I209
aI0
aI0
aa(lp188
I177
aI0
aI0
aa(lp189
I163
aI0
aI0
aa(lp190
I41
aI0
aI0
aa(lp191
I176
aI0
aI0
aa(lp192
I178
aI0
aI0
aa(lp193
I169
aI0
aI0
aa(lp194
I153
aI0
aI0
aa(lp195
I64
aI0
aI0
aa(lp196
I191
aI0
aI0
aa(lp197
I32
aI0
aI0
aa(lp198
I127
aI0
aI0
aa(lp199
I173
aI0
aI0
aa(lp200
I148
aI0
aI0
aa(lp201
I176
aI0
aI0
aa(lp202
I135
aI0
aI0
aa(lp203
I373
aI0
aI0
aa(lp204
I151
aI0
aI0
aa(lp205
I194
aI0
aI0
aa(lp206
I168
aI0
aI0
aa(lp207
I144
aI0
aI0
aa(lp208
I183
aI0
aI0
aa(lp209
I135
aI0
aI0
aa(lp210
I179
aI0
aI0
aa.