(lp1
(lp2
I2
aI1
aI0
aa(lp3
I10
aI5
aI0
aa(lp4
I6
aI3
aI0
aa(lp5
I4
aI2
aI0
aa(lp6
I2
aI1
aI0
aa(lp7
I4
aI2
aI0
aa(lp8
I4
aI2
aI0
aa(lp9
I2
aI1
aI0
aa(lp10
I2
aI1
aI0
aa(lp11
I2
aI1
aI0
aa(lp12
I2
aI1
aI0
aa(lp13
I6
aI3
aI0
aa(lp14
I2
aI1
aI0
aa(lp15
I10
aI5
aI0
aa(lp16
I6
aI3
aI0
aa(lp17
I2
aI1
aI0
aa(lp18
I4
aI2
aI0
aa(lp19
I6
aI3
aI0
aa(lp20
I2
aI1
aI0
aa(lp21
I2
aI1
aI0
aa(lp22
I4
aI2
aI0
aa(lp23
I2
aI1
aI0
aa(lp24
I6
aI3
aI0
aa(lp25
I4
aI2
aI0
aa(lp26
I6
aI3
aI0
aa(lp27
I8
aI4
aI0
aa(lp28
I4
aI2
aI0
aa(lp29
I4
aI2
aI0
aa(lp30
I-1
aI-1
aI-1
aa(lp31
I2
aI1
aI0
aa.