(lp1
(lp2
I98
aI0
aI0
aa(lp3
I110
aI0
aI0
aa(lp4
I95
aI0
aI0
aa(lp5
I89
aI0
aI0
aa(lp6
I105
aI0
aI0
aa(lp7
I87
aI0
aI0
aa(lp8
I99
aI0
aI0
aa(lp9
I96
aI0
aI0
aa(lp10
I88
aI0
aI0
aa(lp11
I115
aI0
aI0
aa(lp12
I105
aI0
aI0
aa(lp13
I109
aI0
aI0
aa(lp14
I89
aI0
aI0
aa(lp15
I106
aI0
aI0
aa(lp16
I101
aI0
aI0
aa(lp17
I125
aI0
aI0
aa(lp18
I119
aI0
aI0
aa(lp19
I100
aI0
aI0
aa(lp20
I89
aI0
aI0
aa(lp21
I89
aI0
aI0
aa(lp22
I101
aI0
aI0
aa(lp23
I88
aI0
aI0
aa(lp24
I106
aI0
aI0
aa(lp25
I99
aI0
aI0
aa(lp26
I93
aI0
aI0
aa(lp27
I103
aI0
aI0
aa(lp28
I96
aI0
aI0
aa(lp29
I86
aI0
aI0
aa(lp30
I92
aI0
aI0
aa(lp31
I96
aI0
aI0
aa(lp32
I128
aI0
aI0
aa(lp33
I99
aI0
aI0
aa(lp34
I89
aI0
aI0
aa(lp35
I101
aI0
aI0
aa(lp36
I100
aI0
aI0
aa(lp37
I108
aI0
aI0
aa(lp38
I97
aI0
aI0
aa(lp39
I110
aI0
aI0
aa(lp40
I92
aI0
aI0
aa(lp41
I96
aI0
aI0
aa(lp42
I92
aI0
aI0
aa(lp43
I98
aI0
aI0
aa(lp44
I96
aI0
aI0
aa(lp45
I89
aI0
aI0
aa(lp46
I96
aI0
aI0
aa(lp47
I100
aI0
aI0
aa(lp48
I91
aI0
aI0
aa(lp49
I103
aI0
aI0
aa(lp50
I130
aI0
aI0
aa(lp51
I105
aI0
aI0
aa(lp52
I82
aI0
aI0
aa(lp53
I83
aI0
aI0
aa(lp54
I106
aI0
aI0
aa(lp55
I146
aI0
aI0
aa(lp56
I96
aI0
aI0
aa(lp57
I109
aI0
aI0
aa(lp58
I100
aI0
aI0
aa(lp59
I97
aI0
aI0
aa(lp60
I97
aI0
aI0
aa(lp61
I121
aI0
aI0
aa(lp62
I93
aI0
aI0
aa(lp63
I107
aI0
aI0
aa(lp64
I111
aI0
aI0
aa(lp65
I81
aI0
aI0
aa(lp66
I104
aI0
aI0
aa(lp67
I111
aI0
aI0
aa(lp68
I89
aI0
aI0
aa(lp69
I101
aI0
aI0
aa(lp70
I126
aI0
aI0
aa(lp71
I126
aI0
aI0
aa(lp72
I102
aI0
aI0
aa(lp73
I85
aI0
aI0
aa(lp74
I99
aI0
aI0
aa(lp75
I110
aI0
aI0
aa(lp76
I87
aI0
aI0
aa(lp77
I116
aI0
aI0
aa(lp78
I111
aI0
aI0
aa(lp79
I109
aI0
aI0
aa(lp80
I96
aI0
aI0
aa(lp81
I89
aI0
aI0
aa(lp82
I101
aI0
aI0
aa(lp83
I92
aI0
aI0
aa(lp84
I104
aI0
aI0
aa(lp85
I138
aI0
aI0
aa(lp86
I104
aI0
aI0
aa(lp87
I80
aI0
aI0
aa(lp88
I102
aI0
aI0
aa(lp89
I99
aI0
aI0
aa(lp90
I112
aI0
aI0
aa(lp91
I88
aI0
aI0
aa(lp92
I86
aI0
aI0
aa(lp93
I115
aI0
aI0
aa(lp94
I103
aI0
aI0
aa(lp95
I103
aI0
aI0
aa(lp96
I90
aI0
aI0
aa(lp97
I113
aI0
aI0
aa(lp98
I110
aI0
aI0
aa(lp99
I97
aI0
aI0
aa(lp100
I104
aI0
aI0
aa(lp101
I84
aI0
aI0
aa(lp102
I81
aI0
aI0
aa(lp103
I98
aI0
aI0
aa(lp104
I106
aI0
aI0
aa(lp105
I143
aI0
aI0
aa(lp106
I107
aI0
aI0
aa(lp107
I126
aI0
aI0
aa(lp108
I86
aI0
aI0
aa(lp109
I99
aI0
aI0
aa(lp110
I88
aI0
aI0
aa(lp111
I107
aI0
aI0
aa(lp112
I89
aI0
aI0
aa(lp113
I109
aI0
aI0
aa(lp114
I84
aI0
aI0
aa(lp115
I164
aI0
aI0
aa(lp116
I108
aI0
aI0
aa(lp117
I135
aI0
aI0
aa(lp118
I83
aI0
aI0
aa(lp119
I91
aI0
aI0
aa(lp120
I113
aI0
aI0
aa(lp121
I92
aI0
aI0
aa(lp122
I110
aI0
aI0
aa(lp123
I100
aI0
aI0
aa(lp124
I87
aI0
aI0
aa(lp125
I96
aI0
aI0
aa(lp126
I119
aI0
aI0
aa(lp127
I101
aI0
aI0
aa(lp128
I82
aI0
aI0
aa(lp129
I108
aI0
aI0
aa(lp130
I91
aI0
aI0
aa(lp131
I87
aI0
aI0
aa(lp132
I111
aI0
aI0
aa(lp133
I92
aI0
aI0
aa(lp134
I151
aI0
aI0
aa(lp135
I124
aI0
aI0
aa(lp136
I153
aI0
aI0
aa(lp137
I100
aI0
aI0
aa(lp138
I102
aI0
aI0
aa(lp139
I99
aI0
aI0
aa(lp140
I97
aI0
aI0
aa(lp141
I102
aI0
aI0
aa(lp142
I104
aI0
aI0
aa.