(lp1
(lp2
I4
aI2
aI0
aa(lp3
I24
aI12
aI0
aa(lp4
I24
aI12
aI0
aa(lp5
I44
aI22
aI0
aa(lp6
I32
aI16
aI0
aa(lp7
I12
aI6
aI0
aa(lp8
I6
aI3
aI0
aa(lp9
I24
aI12
aI0
aa(lp10
I12
aI6
aI0
aa(lp11
I24
aI12
aI0
aa(lp12
I6
aI3
aI0
aa(lp13
I26
aI13
aI0
aa(lp14
I80
aI40
aI0
aa(lp15
I18
aI9
aI0
aa(lp16
I14
aI7
aI0
aa(lp17
I18
aI9
aI0
aa(lp18
I12
aI6
aI0
aa(lp19
I18
aI9
aI0
aa(lp20
I8
aI4
aI0
aa(lp21
I6
aI3
aI0
aa(lp22
I10
aI5
aI0
aa(lp23
I26
aI13
aI0
aa(lp24
I22
aI11
aI0
aa(lp25
I6
aI3
aI0
aa(lp26
I10
aI5
aI0
aa(lp27
I32
aI16
aI0
aa(lp28
I12
aI6
aI0
aa(lp29
I24
aI12
aI0
aa(lp30
I44
aI22
aI0
aa(lp31
I12
aI6
aI0
aa(lp32
I16
aI8
aI0
aa(lp33
I56
aI28
aI0
aa(lp34
I16
aI8
aI0
aa(lp35
I88
aI44
aI0
aa(lp36
I10
aI5
aI0
aa(lp37
I72
aI36
aI0
aa(lp38
I22
aI11
aI0
aa(lp39
I26
aI13
aI0
aa(lp40
I28
aI14
aI0
aa(lp41
I12
aI6
aI0
aa(lp42
I40
aI20
aI0
aa(lp43
I16
aI8
aI0
aa(lp44
I12
aI6
aI0
aa(lp45
I24
aI12
aI0
aa(lp46
I14
aI7
aI0
aa(lp47
I14
aI7
aI0
aa(lp48
I60
aI30
aI0
aa(lp49
I38
aI19
aI0
aa(lp50
I4
aI2
aI0
aa(lp51
I8
aI4
aI0
aa(lp52
I10
aI5
aI0
aa(lp53
I20
aI10
aI0
aa(lp54
I22
aI11
aI0
aa(lp55
I36
aI18
aI0
aa(lp56
I2
aI1
aI0
aa(lp57
I2
aI1
aI0
aa(lp58
I18
aI9
aI0
aa(lp59
I22
aI11
aI0
aa(lp60
I12
aI6
aI0
aa(lp61
I12
aI6
aI0
aa(lp62
I54
aI27
aI0
aa(lp63
I6
aI3
aI0
aa(lp64
I12
aI6
aI0
aa(lp65
I30
aI15
aI0
aa(lp66
I12
aI6
aI0
aa(lp67
I36
aI18
aI0
aa(lp68
I60
aI30
aI0
aa(lp69
I12
aI6
aI0
aa(lp70
I14
aI7
aI0
aa(lp71
I6
aI3
aI0
aa(lp72
I8
aI4
aI0
aa(lp73
I12
aI6
aI0
aa(lp74
I10
aI5
aI0
aa(lp75
I4
aI2
aI0
aa(lp76
I16
aI8
aI0
aa(lp77
I210
aI105
aI0
aa(lp78
I10
aI5
aI0
aa(lp79
I26
aI13
aI0
aa(lp80
I38
aI19
aI0
aa(lp81
I6
aI3
aI0
aa(lp82
I-1
aI-1
aI-1
aa(lp83
I10
aI5
aI0
aa(lp84
I8
aI4
aI0
aa(lp85
I16
aI8
aI0
aa(lp86
I12
aI6
aI0
aa(lp87
I32
aI16
aI0
aa(lp88
I8
aI4
aI0
aa(lp89
I4
aI2
aI0
aa(lp90
I32
aI16
aI0
aa(lp91
I14
aI7
aI0
aa(lp92
I8
aI4
aI0
aa(lp93
I6
aI3
aI0
aa(lp94
I36
aI18
aI0
aa(lp95
I12
aI6
aI0
aa.