(lp1
(lp2
I1
aI0
aI0
aa(lp3
I38
aI0
aI0
aa(lp4
I9
aI0
aI0
aa(lp5
I20
aI0
aI0
aa(lp6
I15
aI0
aI0
aa(lp7
I18
aI0
aI0
aa(lp8
I5
aI0
aI0
aa(lp9
I9
aI0
aI0
aa(lp10
I2
aI0
aI0
aa(lp11
I23
aI0
aI0
aa(lp12
I0
aI0
aI0
aa(lp13
I12
aI0
aI0
aa(lp14
I21
aI0
aI0
aa(lp15
I10
aI0
aI0
aa(lp16
I6
aI0
aI0
aa(lp17
I3
aI0
aI0
aa(lp18
I9
aI0
aI0
aa(lp19
I7
aI0
aI0
aa(lp20
I0
aI0
aI0
aa(lp21
I2
aI0
aI0
aa(lp22
I26
aI0
aI0
aa(lp23
I16
aI0
aI0
aa(lp24
I20
aI0
aI0
aa(lp25
I1
aI0
aI0
aa(lp26
I16
aI0
aI0
aa(lp27
I17
aI0
aI0
aa(lp28
I4
aI0
aI0
aa(lp29
I24
aI0
aI0
aa(lp30
I45
aI0
aI0
aa(lp31
I0
aI0
aI0
aa(lp32
I4
aI0
aI0
aa(lp33
I24
aI0
aI0
aa(lp34
I6
aI0
aI0
aa(lp35
I31
aI0
aI0
aa(lp36
I15
aI0
aI0
aa(lp37
I67
aI0
aI0
aa(lp38
I18
aI0
aI0
aa(lp39
I16
aI0
aI0
aa(lp40
I31
aI0
aI0
aa(lp41
I10
aI0
aI0
aa(lp42
I37
aI0
aI0
aa(lp43
I5
aI0
aI0
aa(lp44
I3
aI0
aI0
aa(lp45
I6
aI0
aI0
aa(lp46
I10
aI0
aI0
aa(lp47
I2
aI0
aI0
aa(lp48
I39
aI0
aI0
aa(lp49
I26
aI0
aI0
aa(lp50
I0
aI0
aI0
aa(lp51
I3
aI0
aI0
aa(lp52
I3
aI0
aI0
aa(lp53
I2
aI0
aI0
aa(lp54
I18
aI0
aI0
aa(lp55
I14
aI0
aI0
aa(lp56
I0
aI0
aI0
aa(lp57
I0
aI0
aI0
aa(lp58
I6
aI0
aI0
aa(lp59
I8
aI0
aI0
aa(lp60
I8
aI0
aI0
aa(lp61
I7
aI0
aI0
aa(lp62
I32
aI0
aI0
aa(lp63
I4
aI0
aI0
aa(lp64
I3
aI0
aI0
aa(lp65
I6
aI0
aI0
aa(lp66
I2
aI0
aI0
aa(lp67
I29
aI0
aI0
aa(lp68
I20
aI0
aI0
aa(lp69
I5
aI0
aI0
aa(lp70
I2
aI0
aI0
aa(lp71
I3
aI0
aI0
aa(lp72
I4
aI0
aI0
aa(lp73
I16
aI0
aI0
aa(lp74
I2
aI0
aI0
aa(lp75
I1
aI0
aI0
aa(lp76
I15
aI0
aI0
aa(lp77
I163
aI0
aI0
aa(lp78
I7
aI0
aI0
aa(lp79
I15
aI0
aI0
aa(lp80
I35
aI0
aI0
aa(lp81
I4
aI0
aI0
aa(lp82
I1
aI0
aI0
aa(lp83
I7
aI0
aI0
aa(lp84
I1
aI0
aI0
aa(lp85
I6
aI0
aI0
aa(lp86
I6
aI0
aI0
aa(lp87
I4
aI0
aI0
aa(lp88
I1
aI0
aI0
aa(lp89
I36
aI0
aI0
aa(lp90
I8
aI0
aI0
aa(lp91
I1
aI0
aI0
aa(lp92
I0
aI0
aI0
aa(lp93
I21
aI0
aI0
aa(lp94
I8
aI0
aI0
aa.