(lp1
(lp2
I4
aI2
aI0
aa(lp3
I44
aI22
aI0
aa(lp4
I26
aI13
aI0
aa(lp5
I62
aI31
aI0
aa(lp6
I50
aI25
aI0
aa(lp7
I18
aI9
aI0
aa(lp8
I12
aI6
aI0
aa(lp9
I44
aI22
aI0
aa(lp10
I12
aI6
aI0
aa(lp11
I28
aI14
aI0
aa(lp12
I12
aI6
aI0
aa(lp13
I32
aI16
aI0
aa(lp14
I88
aI44
aI0
aa(lp15
I24
aI12
aI0
aa(lp16
I18
aI9
aI0
aa(lp17
I20
aI10
aI0
aa(lp18
I14
aI7
aI0
aa(lp19
I18
aI9
aI0
aa(lp20
I10
aI5
aI0
aa(lp21
I18
aI9
aI0
aa(lp22
I16
aI8
aI0
aa(lp23
I28
aI14
aI0
aa(lp24
I22
aI11
aI0
aa(lp25
I8
aI4
aI0
aa(lp26
I22
aI11
aI0
aa(lp27
I38
aI19
aI0
aa(lp28
I12
aI6
aI0
aa(lp29
I30
aI15
aI0
aa(lp30
I50
aI25
aI0
aa(lp31
I18
aI9
aI0
aa(lp32
I30
aI15
aI0
aa(lp33
I84
aI42
aI0
aa(lp34
I18
aI9
aI0
aa(lp35
I124
aI62
aI0
aa(lp36
I14
aI7
aI0
aa(lp37
I92
aI46
aI0
aa(lp38
I30
aI15
aI0
aa(lp39
I32
aI16
aI0
aa(lp40
I40
aI20
aI0
aa(lp41
I16
aI8
aI0
aa(lp42
I54
aI27
aI0
aa(lp43
I16
aI8
aI0
aa(lp44
I12
aI6
aI0
aa(lp45
I28
aI14
aI0
aa(lp46
I18
aI9
aI0
aa(lp47
I16
aI8
aI0
aa(lp48
I76
aI38
aI0
aa(lp49
I46
aI23
aI0
aa(lp50
I4
aI2
aI0
aa(lp51
I8
aI4
aI0
aa(lp52
I18
aI9
aI0
aa(lp53
I20
aI10
aI0
aa(lp54
I30
aI15
aI0
aa(lp55
I48
aI24
aI0
aa(lp56
I4
aI2
aI0
aa(lp57
I2
aI1
aI0
aa(lp58
I20
aI10
aI0
aa(lp59
I24
aI12
aI0
aa(lp60
I16
aI8
aI0
aa(lp61
I12
aI6
aI0
aa(lp62
I62
aI31
aI0
aa(lp63
I10
aI5
aI0
aa(lp64
I26
aI13
aI0
aa(lp65
I34
aI17
aI0
aa(lp66
I12
aI6
aI0
aa(lp67
I50
aI25
aI0
aa(lp68
I78
aI39
aI0
aa(lp69
I16
aI8
aI0
aa(lp70
I18
aI9
aI0
aa(lp71
I6
aI3
aI0
aa(lp72
I10
aI5
aI0
aa(lp73
I20
aI10
aI0
aa(lp74
I10
aI5
aI0
aa(lp75
I4
aI2
aI0
aa(lp76
I24
aI12
aI0
aa(lp77
I324
aI162
aI0
aa(lp78
I10
aI5
aI0
aa(lp79
I34
aI17
aI0
aa(lp80
I46
aI23
aI0
aa(lp81
I16
aI8
aI0
aa(lp82
I-1
aI-1
aI-1
aa(lp83
I16
aI8
aI0
aa(lp84
I12
aI6
aI0
aa(lp85
I22
aI11
aI0
aa(lp86
I14
aI7
aI0
aa(lp87
I40
aI20
aI0
aa(lp88
I8
aI4
aI0
aa(lp89
I4
aI2
aI0
aa(lp90
I46
aI23
aI0
aa(lp91
I16
aI8
aI0
aa(lp92
I8
aI4
aI0
aa(lp93
I14
aI7
aI0
aa(lp94
I66
aI33
aI0
aa(lp95
I16
aI8
aI0
aa.